CPU     ID                    FUNCTION:NAME
  6  29091                        :tick-60s 


              rg`__ZN13grep_searcher8searcher8Searcher11search_path17h4867309d69f27419E+0x10a0
              rg`__ZN2rg15search_parallel28_$u7b$$u7b$closure$u7d$$u7d$28_$u7b$$u7b$closure$u7d$$u7d$17h6e849b55a66fcd85E+0xac
              rg`__ZN6ignore4walk6Worker3run17h428457710ae7645aE+0x40b
              rg`__ZN3std10sys_common9backtrace28__rust_begin_short_backtrace17h71644e3bf9e2bb80E+0x25
              rg`__ZN3std9panicking3try7do_call17h08ca64c12e8a9bb0E.llvm.15516475458848885060+0x25
              rg`__rust_maybe_catch_panic+0x1f
              rg`__ZN50_$LT$F$u20$as$u20$alloc..boxed..FnBox$LT$A$GT$$GT$8call_box17h8612a2a83552fc2dE+0xa5
              rg`__ZN3std10sys_common6thread12start_thread17he4c2173d5991c786E+0x88
              rg`__ZN3std3sys4unix6thread6Thread3new12thread_start17h8b5ec703435993e3E+0x9
              libsystem_pthread.dylib`_pthread_body+0x7e
              libsystem_pthread.dylib`_pthread_start+0x42
              libsystem_pthread.dylib`thread_start+0xd
                1

              rg`__ZN13grep_searcher11line_buffer10LineBuffer15ensure_capacity17h9368c0fb20c34d8dE
              rg`__ZN91_$LT$grep_searcher..searcher..glue..ReadByLine$LT$$u27$s$C$$u20$M$C$$u20$R$C$$u20$S$GT$$GT$3run17h30ecedc997ad7e32E+0x127
              rg`__ZN13grep_searcher8searcher8Searcher11search_path17h4867309d69f27419E+0xb59
              rg`__ZN42_$LT$rg..search..SearchWorker$LT$W$GT$$GT$11search_impl17hcf61284e58f410e0E.llvm.17269878581919215071+0x1585
              rg`__ZN2rg15search_parallel28_$u7b$$u7b$closure$u7d$$u7d$28_$u7b$$u7b$closure$u7d$$u7d$17h6e849b55a66fcd85E+0xac
              rg`__ZN6ignore4walk6Worker3run17h428457710ae7645aE+0x40b
              rg`__ZN3std10sys_common9backtrace28__rust_begin_short_backtrace17h71644e3bf9e2bb80E+0x25
              rg`__ZN3std9panicking3try7do_call17h08ca64c12e8a9bb0E.llvm.15516475458848885060+0x25
              rg`__rust_maybe_catch_panic+0x1f
              rg`__ZN50_$LT$F$u20$as$u20$alloc..boxed..FnBox$LT$A$GT$$GT$8call_box17h8612a2a83552fc2dE+0xa5
              rg`__ZN3std10sys_common6thread12start_thread17he4c2173d5991c786E+0x88
              rg`__ZN3std3sys4unix6thread6Thread3new12thread_start17h8b5ec703435993e3E+0x9
              libsystem_pthread.dylib`_pthread_body+0x7e
              libsystem_pthread.dylib`_pthread_start+0x42
              libsystem_pthread.dylib`thread_start+0xd
                1

              rg`__ZN14encoding_rs_io4util11PossibleBom8as_slice17h2cc2deba7651dc2aE
              rg`__ZN85_$LT$encoding_rs_io..DecodeReaderBytes$LT$R$C$$u20$B$GT$$u20$as$u20$std..io..Read$GT$4read17h19bd185b1317f06cE+0x50
              rg`__ZN76_$LT$grep_searcher..line_buffer..LineBufferReader$LT$$u27$b$C$$u20$R$GT$$GT$4fill17h5bc5eae4aa7991dbE+0x9f
              rg`__ZN91_$LT$grep_searcher..searcher..glue..ReadByLine$LT$$u27$s$C$$u20$M$C$$u20$R$C$$u20$S$GT$$GT$3run17h30ecedc997ad7e32E+0x127
              rg`__ZN13grep_searcher8searcher8Searcher11search_path17h4867309d69f27419E+0xb59
              rg`__ZN42_$LT$rg..search..SearchWorker$LT$W$GT$$GT$11search_impl17hcf61284e58f410e0E.llvm.17269878581919215071+0x1585
              rg`__ZN2rg15search_parallel28_$u7b$$u7b$closure$u7d$$u7d$28_$u7b$$u7b$closure$u7d$$u7d$17h6e849b55a66fcd85E+0xac
              rg`__ZN6ignore4walk6Worker3run17h428457710ae7645aE+0x40b
              rg`__ZN3std10sys_common9backtrace28__rust_begin_short_backtrace17h71644e3bf9e2bb80E+0x25
              rg`__ZN3std9panicking3try7do_call17h08ca64c12e8a9bb0E.llvm.15516475458848885060+0x25
              rg`__rust_maybe_catch_panic+0x1f
              rg`__ZN50_$LT$F$u20$as$u20$alloc..boxed..FnBox$LT$A$GT$$GT$8call_box17h8612a2a83552fc2dE+0xa5
              rg`__ZN3std10sys_common6thread12start_thread17he4c2173d5991c786E+0x88
              rg`__ZN3std3sys4unix6thread6Thread3new12thread_start17h8b5ec703435993e3E+0x9
              libsystem_pthread.dylib`_pthread_body+0x7e
              libsystem_pthread.dylib`_pthread_start+0x42
              libsystem_pthread.dylib`thread_start+0xd
                1

              rg`__ZN6memchr3x863avx6memchr17hc74ea6bdc6b1e860E+0xa1
              rg`__ZN91_$LT$grep_searcher..searcher..glue..ReadByLine$LT$$u27$s$C$$u20$M$C$$u20$R$C$$u20$S$GT$$GT$3run17h30ecedc997ad7e32E+0x127
              rg`__ZN13grep_searcher8searcher8Searcher11search_path17h4867309d69f27419E+0xb59
              rg`__ZN42_$LT$rg..search..SearchWorker$LT$W$GT$$GT$11search_impl17hcf61284e58f410e0E.llvm.17269878581919215071+0x1585
              rg`__ZN2rg15search_parallel28_$u7b$$u7b$closure$u7d$$u7d$28_$u7b$$u7b$closure$u7d$$u7d$17h6e849b55a66fcd85E+0xac
              rg`__ZN6ignore4walk6Worker3run17h428457710ae7645aE+0x40b
              rg`__ZN3std10sys_common9backtrace28__rust_begin_short_backtrace17h71644e3bf9e2bb80E+0x25
              rg`__ZN3std9panicking3try7do_call17h08ca64c12e8a9bb0E.llvm.15516475458848885060+0x25
              rg`__rust_maybe_catch_panic+0x1f
              rg`__ZN50_$LT$F$u20$as$u20$alloc..boxed..FnBox$LT$A$GT$$GT$8call_box17h8612a2a83552fc2dE+0xa5
              rg`__ZN3std10sys_common6thread12start_thread17he4c2173d5991c786E+0x88
              rg`__ZN3std3sys4unix6thread6Thread3new12thread_start17h8b5ec703435993e3E+0x9
              libsystem_pthread.dylib`_pthread_body+0x7e
              libsystem_pthread.dylib`_pthread_start+0x42
              libsystem_pthread.dylib`thread_start+0xd
                1

              rg`__ZN13grep_searcher11line_buffer10LineBuffer15ensure_capacity17h9368c0fb20c34d8dE+0x1
              rg`__ZN91_$LT$grep_searcher..searcher..glue..ReadByLine$LT$$u27$s$C$$u20$M$C$$u20$R$C$$u20$S$GT$$GT$3run17h30ecedc997ad7e32E+0x127
              rg`__ZN13grep_searcher8searcher8Searcher11search_path17h4867309d69f27419E+0xb59
              rg`__ZN42_$LT$rg..search..SearchWorker$LT$W$GT$$GT$11search_impl17hcf61284e58f410e0E.llvm.17269878581919215071+0x1585
              rg`__ZN2rg15search_parallel28_$u7b$$u7b$closure$u7d$$u7d$28_$u7b$$u7b$closure$u7d$$u7d$17h6e849b55a66fcd85E+0xac
              rg`__ZN6ignore4walk6Worker3run17h428457710ae7645aE+0x40b
              rg`__ZN3std10sys_common9backtrace28__rust_begin_short_backtrace17h71644e3bf9e2bb80E+0x25
              rg`__ZN3std9panicking3try7do_call17h08ca64c12e8a9bb0E.llvm.15516475458848885060+0x25
              rg`__rust_maybe_catch_panic+0x1f
              rg`__ZN50_$LT$F$u20$as$u20$alloc..boxed..FnBox$LT$A$GT$$GT$8call_box17h8612a2a83552fc2dE+0xa5
              rg`__ZN3std10sys_common6thread12start_thread17he4c2173d5991c786E+0x88
              rg`__ZN3std3sys4unix6thread6Thread3new12thread_start17h8b5ec703435993e3E+0x9
              libsystem_pthread.dylib`_pthread_body+0x7e
              libsystem_pthread.dylib`_pthread_start+0x42
              libsystem_pthread.dylib`thread_start+0xd
                1

              rg`__ZN6memchr3x863avx6memchr17hc74ea6bdc6b1e860E+0xa6
              rg`__ZN75_$LT$grep_regex..matcher..RegexMatcher$u20$as$u20$grep_matcher..Matcher$GT$19find_candidate_line17h33f9c077c6589c2aE+0x14e
              rg`__ZN76_$LT$grep_searcher..searcher..core..Core$LT$$u27$s$C$$u20$M$C$$u20$S$GT$$GT$13match_by_line17hed1d0226a7a67d03E+0x813
              rg`__ZN91_$LT$grep_searcher..searcher..glue..ReadByLine$LT$$u27$s$C$$u20$M$C$$u20$R$C$$u20$S$GT$$GT$3run17h30ecedc997ad7e32E+0x26f
              rg`__ZN13grep_searcher8searcher8Searcher11search_path17h4867309d69f27419E+0xb59
              rg`__ZN42_$LT$rg..search..SearchWorker$LT$W$GT$$GT$11search_impl17hcf61284e58f410e0E.llvm.17269878581919215071+0x1585
